target datalayout = "e-m:e-p270:32:32-p271:32:32-p272:64:64-i64:64-i128:128-f80:128-n8:16:32:64-S128"
target triple = "x86_64-pc-linux-gnu"

%"class.std::locale" = type { ptr }
%"class.boost::locale::detail::format_parser" = type { ptr, %"class.boost::locale::hold_ptr" }
%"class.boost::locale::hold_ptr" = type { ptr }
%"struct.boost::locale::detail::format_parser::data" = type { i32, i64, i32, %"class.boost::locale::ios_info", %"class.std::locale", i8, ptr, ptr }
%"class.boost::locale::ios_info" = type { i64, i32, %"class.std::__cxx11::basic_string", %"class.boost::locale::detail::any_string" }
%"class.std::__cxx11::basic_string" = type { %"struct.std::__cxx11::basic_string<char>::_Alloc_hider", i64, %union.anon }
%"struct.std::__cxx11::basic_string<char>::_Alloc_hider" = type { ptr }
%union.anon = type { i64, [8 x i8] }
%"class.boost::locale::detail::any_string" = type { %"class.std::unique_ptr" }
%"class.std::unique_ptr" = type { %"struct.std::__uniq_ptr_data" }
%"struct.std::__uniq_ptr_data" = type { %"class.std::__uniq_ptr_impl" }
%"class.std::__uniq_ptr_impl" = type { %"class.std::tuple" }
%"class.std::tuple" = type { %"struct.std::_Tuple_impl" }
%"struct.std::_Tuple_impl" = type { %"struct.std::_Head_base.1" }
%"struct.std::_Head_base.1" = type { ptr }
%"class.std::ios_base" = type { ptr, i64, i64, i32, i32, i32, ptr, %"struct.std::ios_base::_Words", [8 x %"struct.std::ios_base::_Words"], i32, ptr, %"class.std::locale" }
%"struct.std::ios_base::_Words" = type { ptr, i64 }

; Function Attrs: mustprogress uwtable
define void @_ZN5boost6locale6detail13format_parser5imbueERKSt6locale(ptr noundef nonnull align 8 dereferenceable(16) %0, ptr noundef nonnull align 8 dereferenceable(8) %1) #4 align 2 {
  %3 = alloca ptr, align 8
  %4 = alloca ptr, align 8
  store ptr %0, ptr %3, align 8, !tbaa !3
  store ptr %1, ptr %4, align 8, !tbaa !3
  %5 = load ptr, ptr %3, align 8
  %6 = getelementptr inbounds nuw %"class.boost::locale::detail::format_parser", ptr %5, i32 0, i32 1
  %7 = call noundef ptr @_ZN5boost6locale8hold_ptrINS0_6detail13format_parser4dataEEptEv(ptr noundef nonnull align 8 dereferenceable(8) %6)
  %8 = getelementptr inbounds nuw %"struct.boost::locale::detail::format_parser::data", ptr %7, i32 0, i32 7
  %9 = load ptr, ptr %8, align 8, !tbaa !28
  %10 = getelementptr inbounds nuw %"class.boost::locale::detail::format_parser", ptr %5, i32 0, i32 1
  %11 = call noundef ptr @_ZN5boost6locale8hold_ptrINS0_6detail13format_parser4dataEEptEv(ptr noundef nonnull align 8 dereferenceable(8) %10)
  %12 = getelementptr inbounds nuw %"struct.boost::locale::detail::format_parser::data", ptr %11, i32 0, i32 6
  %13 = load ptr, ptr %12, align 8, !tbaa !27
  %14 = load ptr, ptr %4, align 8, !tbaa !3
  call void %9(ptr noundef %13, ptr noundef nonnull align 8 dereferenceable(8) %14)
  ret void
}

; Function Attrs: mustprogress nounwind uwtable
define linkonce_odr hidden noundef i32 @_ZNSt8ios_base5flagsESt13_Ios_Fmtflags(ptr noundef nonnull align 8 dereferenceable(216) %0, i32 noundef %1) #8 comdat align 2 {
  %3 = alloca ptr, align 8
  %4 = alloca i32, align 4
  %5 = alloca i32, align 4
  store ptr %0, ptr %3, align 8, !tbaa !3
  store i32 %1, ptr %4, align 4, !tbaa !42
  %6 = load ptr, ptr %3, align 8
  call void @llvm.lifetime.start.p0(i64 4, ptr %5) #3
  %7 = getelementptr inbounds nuw %"class.std::ios_base", ptr %6, i32 0, i32 3
  %8 = load i32, ptr %7, align 8, !tbaa !35
  store i32 %8, ptr %5, align 4, !tbaa !42
  %9 = load i32, ptr %4, align 4, !tbaa !42
  %10 = getelementptr inbounds nuw %"class.std::ios_base", ptr %6, i32 0, i32 3
  store i32 %9, ptr %10, align 8, !tbaa !35
  %11 = load i32, ptr %5, align 4, !tbaa !42
  call void @llvm.lifetime.end.p0(i64 4, ptr %5) #3
  ret i32 %11
}

; Function Attrs: mustprogress nounwind uwtable
define linkonce_odr hidden noundef i64 @_ZNSt8ios_base5widthEl(ptr noundef nonnull align 8 dereferenceable(216) %0, i64 noundef %1) #8 comdat align 2 {
  %3 = alloca ptr, align 8
  %4 = alloca i64, align 8
  %5 = alloca i64, align 8
  store ptr %0, ptr %3, align 8, !tbaa !3
  store i64 %1, ptr %4, align 8, !tbaa !40
  %6 = load ptr, ptr %3, align 8
  call void @llvm.lifetime.start.p0(i64 8, ptr %5) #3
  %7 = getelementptr inbounds nuw %"class.std::ios_base", ptr %6, i32 0, i32 2
  %8 = load i64, ptr %7, align 8, !tbaa !41
  store i64 %8, ptr %5, align 8, !tbaa !40
  %9 = load i64, ptr %4, align 8, !tbaa !40
  %10 = getelementptr inbounds nuw %"class.std::ios_base", ptr %6, i32 0, i32 2
  store i64 %9, ptr %10, align 8, !tbaa !41
  %11 = load i64, ptr %5, align 8, !tbaa !40
  call void @llvm.lifetime.end.p0(i64 8, ptr %5) #3
  ret i64 %11
}

; Function Attrs: mustprogress nounwind uwtable
define linkonce_odr hidden noundef ptr @_ZN5boost6locale8hold_ptrINS0_6detail13format_parser4dataEEptEv(ptr noundef nonnull align 8 dereferenceable(8) %0) #8 comdat align 2 {
  %2 = alloca ptr, align 8
  store ptr %0, ptr %2, align 8, !tbaa !3
  %3 = load ptr, ptr %2, align 8
  %4 = getelementptr inbounds nuw %"class.boost::locale::hold_ptr", ptr %3, i32 0, i32 0
  %5 = load ptr, ptr %4, align 8, !tbaa !29
  ret ptr %5
}

; Function Attrs: mustprogress uwtable
define void @_ZN5boost6locale6detail13format_parser7restoreEv(ptr noundef nonnull align 8 dereferenceable(16) %0) #4 align 2 {
  %2 = alloca ptr, align 8
  store ptr %0, ptr %2, align 8, !tbaa !3
  %3 = load ptr, ptr %2, align 8
  %4 = getelementptr inbounds nuw %"class.boost::locale::detail::format_parser", ptr %3, i32 0, i32 1
  %5 = call noundef ptr @_ZN5boost6locale8hold_ptrINS0_6detail13format_parser4dataEEptEv(ptr noundef nonnull align 8 dereferenceable(8) %4)
  %6 = getelementptr inbounds nuw %"struct.boost::locale::detail::format_parser::data", ptr %5, i32 0, i32 3
  %7 = getelementptr inbounds nuw %"class.boost::locale::detail::format_parser", ptr %3, i32 0, i32 0
  %8 = load ptr, ptr %7, align 8, !tbaa !36
  %9 = call noundef nonnull align 8 dereferenceable(56) ptr @_ZN5boost6locale8ios_info3getERSt8ios_base(ptr noundef nonnull align 8 dereferenceable(216) %8)
  %10 = call noundef nonnull align 8 dereferenceable(56) ptr @_ZN5boost6locale8ios_infoaSERKS1_(ptr noundef nonnull align 8 dereferenceable(56) %9, ptr noundef nonnull align 8 dereferenceable(56) %6)
  %11 = getelementptr inbounds nuw %"class.boost::locale::detail::format_parser", ptr %3, i32 0, i32 0
  %12 = load ptr, ptr %11, align 8, !tbaa !36
  %13 = call noundef i64 @_ZNSt8ios_base5widthEl(ptr noundef nonnull align 8 dereferenceable(216) %12, i64 noundef 0)
  %14 = getelementptr inbounds nuw %"class.boost::locale::detail::format_parser", ptr %3, i32 0, i32 0
  %15 = load ptr, ptr %14, align 8, !tbaa !36
  %16 = getelementptr inbounds nuw %"class.boost::locale::detail::format_parser", ptr %3, i32 0, i32 1
  %17 = call noundef ptr @_ZN5boost6locale8hold_ptrINS0_6detail13format_parser4dataEEptEv(ptr noundef nonnull align 8 dereferenceable(8) %16)
  %18 = getelementptr inbounds nuw %"struct.boost::locale::detail::format_parser::data", ptr %17, i32 0, i32 2
  %19 = load i32, ptr %18, align 8, !tbaa !25
  %20 = call noundef i32 @_ZNSt8ios_base5flagsESt13_Ios_Fmtflags(ptr noundef nonnull align 8 dereferenceable(216) %15, i32 noundef %19)
  %21 = getelementptr inbounds nuw %"class.boost::locale::detail::format_parser", ptr %3, i32 0, i32 1
  %22 = call noundef ptr @_ZN5boost6locale8hold_ptrINS0_6detail13format_parser4dataEEptEv(ptr noundef nonnull align 8 dereferenceable(8) %21)
  %23 = getelementptr inbounds nuw %"struct.boost::locale::detail::format_parser::data", ptr %22, i32 0, i32 5
  %24 = load i8, ptr %23, align 8, !tbaa !26, !range !38, !noundef !39
  %25 = trunc i8 %24 to i1
  br i1 %25, label %26, label %30

26:                                               ; preds = %1
  %27 = getelementptr inbounds nuw %"class.boost::locale::detail::format_parser", ptr %3, i32 0, i32 1
  %28 = call noundef ptr @_ZN5boost6locale8hold_ptrINS0_6detail13format_parser4dataEEptEv(ptr noundef nonnull align 8 dereferenceable(8) %27)
  %29 = getelementptr inbounds nuw %"struct.boost::locale::detail::format_parser::data", ptr %28, i32 0, i32 4
  call void @_ZN5boost6locale6detail13format_parser5imbueERKSt6locale(ptr noundef nonnull align 8 dereferenceable(16) %3, ptr noundef nonnull align 8 dereferenceable(8) %29)
  br label %30

30:                                               ; preds = %26, %1
  ret void
}