; Function Attrs: mustprogress uwtable
define void @_ZN5boost6locale6detail13format_parser7restoreEv(ptr nocapture noundef nonnull readonly align 8 dereferenceable(16) %0) local_unnamed_addr #3 align 2 {
  %2 = getelementptr inbounds nuw i8, ptr %0, i64 8
  %3 = load ptr, ptr %2, align 8, !tbaa !7
  %4 = getelementptr inbounds nuw i8, ptr %3, i64 24
  %5 = load ptr, ptr %0, align 8, !tbaa !36
  %6 = tail call noundef nonnull align 8 dereferenceable(56) ptr @_ZN5boost6locale8ios_info3getERSt8ios_base(ptr noundef nonnull align 8 dereferenceable(216) %5)
  %7 = tail call noundef nonnull align 8 dereferenceable(56) ptr @_ZN5boost6locale8ios_infoaSERKS1_(ptr noundef nonnull align 8 dereferenceable(56) %6, ptr noundef nonnull align 8 dereferenceable(56) %4)
  %8 = load ptr, ptr %0, align 8, !tbaa !36
  %9 = getelementptr inbounds nuw i8, ptr %8, i64 16
  store i64 0, ptr %9, align 8, !tbaa !38
  %10 = load ptr, ptr %2, align 8, !tbaa !7
  %11 = getelementptr inbounds nuw i8, ptr %10, i64 16
  %12 = load i32, ptr %11, align 8, !tbaa !32
  %13 = getelementptr inbounds nuw i8, ptr %8, i64 24
  store i32 %12, ptr %13, align 8, !tbaa !31
  %14 = getelementptr inbounds nuw i8, ptr %10, i64 88
  %15 = load i8, ptr %14, align 8, !tbaa !33, !range !39, !noundef !40
  %16 = trunc nuw i8 %15 to i1
  br i1 %16, label %17, label %23

17:                                               ; preds = %1
  %18 = getelementptr inbounds nuw i8, ptr %10, i64 80
  %19 = getelementptr inbounds nuw i8, ptr %10, i64 104
  %20 = load ptr, ptr %19, align 8, !tbaa !35
  %21 = getelementptr inbounds nuw i8, ptr %10, i64 96
  %22 = load ptr, ptr %21, align 8, !tbaa !34
  tail call void %20(ptr noundef %22, ptr noundef nonnull align 8 dereferenceable(8) %18)
  br label %23

23:                                               ; preds = %17, %1
  ret void
}